target datalayout = "e-m:e-p270:32:32-p271:32:32-p272:64:64-i64:64-i128:128-f80:128-n8:16:32:64-S128"
target triple = "x86_64-pc-linux-gnu"

%struct.archive_string = type { ptr, i64, i64 }
%struct.archive_write_filter = type { i64, ptr, ptr, ptr, ptr, ptr, ptr, ptr, ptr, ptr, ptr, i32, i32, i32, i32 }
%struct.private_b64encode = type { i32, %struct.archive_string, %struct.archive_string, i64, i64, [57 x i8] }

; Function Attrs: nounwind uwtable
define internal i32 @archive_filter_b64encode_write(ptr noundef %0, ptr noundef %1, i64 noundef %2) #0 {
  %4 = alloca i32, align 4
  %5 = alloca ptr, align 8
  %6 = alloca ptr, align 8
  %7 = alloca i64, align 8
  %8 = alloca ptr, align 8
  %9 = alloca ptr, align 8
  %10 = alloca i32, align 4
  %11 = alloca i32, align 4
  store ptr %0, ptr %5, align 8, !tbaa !11
  store ptr %1, ptr %6, align 8, !tbaa !41
  store i64 %2, ptr %7, align 8, !tbaa !33
  call void @llvm.lifetime.start.p0(i64 8, ptr %8) #7
  %12 = load ptr, ptr %5, align 8, !tbaa !11
  %13 = getelementptr inbounds nuw %struct.archive_write_filter, ptr %12, i32 0, i32 9
  %14 = load ptr, ptr %13, align 8, !tbaa !25
  store ptr %14, ptr %8, align 8, !tbaa !15
  call void @llvm.lifetime.start.p0(i64 8, ptr %9) #7
  %15 = load ptr, ptr %6, align 8, !tbaa !41
  store ptr %15, ptr %9, align 8, !tbaa !40
  call void @llvm.lifetime.start.p0(i64 4, ptr %10) #7
  store i32 0, ptr %10, align 4, !tbaa !13
  %16 = load i64, ptr %7, align 8, !tbaa !33
  %17 = icmp eq i64 %16, 0
  br i1 %17, label %18, label %20

18:                                               ; preds = %3
  %19 = load i32, ptr %10, align 4, !tbaa !13
  store i32 %19, ptr %4, align 4
  store i32 1, ptr %11, align 4
  br label %141

20:                                               ; preds = %3
  %21 = load ptr, ptr %8, align 8, !tbaa !15
  %22 = getelementptr inbounds nuw %struct.private_b64encode, ptr %21, i32 0, i32 4
  %23 = load i64, ptr %22, align 8, !tbaa !42
  %24 = icmp ne i64 %23, 0
  br i1 %24, label %25, label %64

25:                                               ; preds = %20
  br label %26

26:                                               ; preds = %36, %25
  %27 = load ptr, ptr %8, align 8, !tbaa !15
  %28 = getelementptr inbounds nuw %struct.private_b64encode, ptr %27, i32 0, i32 4
  %29 = load i64, ptr %28, align 8, !tbaa !42
  %30 = icmp ult i64 %29, 57
  br i1 %30, label %31, label %34

31:                                               ; preds = %26
  %32 = load i64, ptr %7, align 8, !tbaa !33
  %33 = icmp ugt i64 %32, 0
  br label %34

34:                                               ; preds = %31, %26
  %35 = phi i1 [ false, %26 ], [ %33, %31 ]
  br i1 %35, label %36, label %49

36:                                               ; preds = %34
  %37 = load ptr, ptr %9, align 8, !tbaa !40
  %38 = getelementptr inbounds nuw i8, ptr %37, i32 1
  store ptr %38, ptr %9, align 8, !tbaa !40
  %39 = load i8, ptr %37, align 1, !tbaa !43
  %40 = load ptr, ptr %8, align 8, !tbaa !15
  %41 = getelementptr inbounds nuw %struct.private_b64encode, ptr %40, i32 0, i32 5
  %42 = load ptr, ptr %8, align 8, !tbaa !15
  %43 = getelementptr inbounds nuw %struct.private_b64encode, ptr %42, i32 0, i32 4
  %44 = load i64, ptr %43, align 8, !tbaa !42
  %45 = add i64 %44, 1
  store i64 %45, ptr %43, align 8, !tbaa !42
  %46 = getelementptr inbounds nuw [57 x i8], ptr %41, i64 0, i64 %44
  store i8 %39, ptr %46, align 1, !tbaa !43
  %47 = load i64, ptr %7, align 8, !tbaa !33
  %48 = add i64 %47, -1
  store i64 %48, ptr %7, align 8, !tbaa !33
  br label %26, !llvm.loop !44

49:                                               ; preds = %34
  %50 = load ptr, ptr %8, align 8, !tbaa !15
  %51 = getelementptr inbounds nuw %struct.private_b64encode, ptr %50, i32 0, i32 4
  %52 = load i64, ptr %51, align 8, !tbaa !42
  %53 = icmp ult i64 %52, 57
  br i1 %53, label %54, label %56

54:                                               ; preds = %49
  %55 = load i32, ptr %10, align 4, !tbaa !13
  store i32 %55, ptr %4, align 4
  store i32 1, ptr %11, align 4
  br label %141

56:                                               ; preds = %49
  %57 = load ptr, ptr %8, align 8, !tbaa !15
  %58 = getelementptr inbounds nuw %struct.private_b64encode, ptr %57, i32 0, i32 2
  %59 = load ptr, ptr %8, align 8, !tbaa !15
  %60 = getelementptr inbounds nuw %struct.private_b64encode, ptr %59, i32 0, i32 5
  %61 = getelementptr inbounds [57 x i8], ptr %60, i64 0, i64 0
  call void @la_b64_encode(ptr noundef %58, ptr noundef %61, i64 noundef 57)
  %62 = load ptr, ptr %8, align 8, !tbaa !15
  %63 = getelementptr inbounds nuw %struct.private_b64encode, ptr %62, i32 0, i32 4
  store i64 0, ptr %63, align 8, !tbaa !42
  br label %64

64:                                               ; preds = %56, %20
  br label %65

65:                                               ; preds = %72, %64
  %66 = load i64, ptr %7, align 8, !tbaa !33
  %67 = icmp uge i64 %66, 57
  br i1 %67, label %68, label %77

68:                                               ; preds = %65
  %69 = load ptr, ptr %8, align 8, !tbaa !15
  %70 = getelementptr inbounds nuw %struct.private_b64encode, ptr %69, i32 0, i32 2
  %71 = load ptr, ptr %9, align 8, !tbaa !40
  call void @la_b64_encode(ptr noundef %70, ptr noundef %71, i64 noundef 57)
  br label %72

72:                                               ; preds = %68
  %73 = load i64, ptr %7, align 8, !tbaa !33
  %74 = sub i64 %73, 57
  store i64 %74, ptr %7, align 8, !tbaa !33
  %75 = load ptr, ptr %9, align 8, !tbaa !40
  %76 = getelementptr inbounds i8, ptr %75, i64 57
  store ptr %76, ptr %9, align 8, !tbaa !40
  br label %65, !llvm.loop !46

77:                                               ; preds = %65
  %78 = load i64, ptr %7, align 8, !tbaa !33
  %79 = icmp ugt i64 %78, 0
  br i1 %79, label %80, label %89

80:                                               ; preds = %77
  %81 = load ptr, ptr %8, align 8, !tbaa !15
  %82 = getelementptr inbounds nuw %struct.private_b64encode, ptr %81, i32 0, i32 5
  %83 = getelementptr inbounds [57 x i8], ptr %82, i64 0, i64 0
  %84 = load ptr, ptr %9, align 8, !tbaa !40
  %85 = load i64, ptr %7, align 8, !tbaa !33
  call void @llvm.memcpy.p0.p0.i64(ptr align 8 %83, ptr align 1 %84, i64 %85, i1 false)
  %86 = load i64, ptr %7, align 8, !tbaa !33
  %87 = load ptr, ptr %8, align 8, !tbaa !15
  %88 = getelementptr inbounds nuw %struct.private_b64encode, ptr %87, i32 0, i32 4
  store i64 %86, ptr %88, align 8, !tbaa !42
  br label %89

89:                                               ; preds = %80, %77
  br label %90

90:                                               ; preds = %99, %89
  %91 = load ptr, ptr %8, align 8, !tbaa !15
  %92 = getelementptr inbounds nuw %struct.private_b64encode, ptr %91, i32 0, i32 2
  %93 = getelementptr inbounds nuw %struct.archive_string, ptr %92, i32 0, i32 1
  %94 = load i64, ptr %93, align 8, !tbaa !47
  %95 = load ptr, ptr %8, align 8, !tbaa !15
  %96 = getelementptr inbounds nuw %struct.private_b64encode, ptr %95, i32 0, i32 3
  %97 = load i64, ptr %96, align 8, !tbaa !38
  %98 = icmp uge i64 %94, %97
  br i1 %98, label %99, label %139

99:                                               ; preds = %90
  %100 = load ptr, ptr %5, align 8, !tbaa !11
  %101 = getelementptr inbounds nuw %struct.archive_write_filter, ptr %100, i32 0, i32 2
  %102 = load ptr, ptr %101, align 8, !tbaa !48
  %103 = load ptr, ptr %8, align 8, !tbaa !15
  %104 = getelementptr inbounds nuw %struct.private_b64encode, ptr %103, i32 0, i32 2
  %105 = getelementptr inbounds nuw %struct.archive_string, ptr %104, i32 0, i32 0
  %106 = load ptr, ptr %105, align 8, !tbaa !49
  %107 = load ptr, ptr %8, align 8, !tbaa !15
  %108 = getelementptr inbounds nuw %struct.private_b64encode, ptr %107, i32 0, i32 3
  %109 = load i64, ptr %108, align 8, !tbaa !38
  %110 = call i32 @__archive_write_filter(ptr noundef %102, ptr noundef %106, i64 noundef %109)
  store i32 %110, ptr %10, align 4, !tbaa !13
  %111 = load ptr, ptr %8, align 8, !tbaa !15
  %112 = getelementptr inbounds nuw %struct.private_b64encode, ptr %111, i32 0, i32 2
  %113 = getelementptr inbounds nuw %struct.archive_string, ptr %112, i32 0, i32 0
  %114 = load ptr, ptr %113, align 8, !tbaa !49
  %115 = load ptr, ptr %8, align 8, !tbaa !15
  %116 = getelementptr inbounds nuw %struct.private_b64encode, ptr %115, i32 0, i32 2
  %117 = getelementptr inbounds nuw %struct.archive_string, ptr %116, i32 0, i32 0
  %118 = load ptr, ptr %117, align 8, !tbaa !49
  %119 = load ptr, ptr %8, align 8, !tbaa !15
  %120 = getelementptr inbounds nuw %struct.private_b64encode, ptr %119, i32 0, i32 3
  %121 = load i64, ptr %120, align 8, !tbaa !38
  %122 = getelementptr inbounds nuw i8, ptr %118, i64 %121
  %123 = load ptr, ptr %8, align 8, !tbaa !15
  %124 = getelementptr inbounds nuw %struct.private_b64encode, ptr %123, i32 0, i32 2
  %125 = getelementptr inbounds nuw %struct.archive_string, ptr %124, i32 0, i32 1
  %126 = load i64, ptr %125, align 8, !tbaa !47
  %127 = load ptr, ptr %8, align 8, !tbaa !15
  %128 = getelementptr inbounds nuw %struct.private_b64encode, ptr %127, i32 0, i32 3
  %129 = load i64, ptr %128, align 8, !tbaa !38
  %130 = sub i64 %126, %129
  call void @llvm.memmove.p0.p0.i64(ptr align 1 %114, ptr align 1 %122, i64 %130, i1 false)
  %131 = load ptr, ptr %8, align 8, !tbaa !15
  %132 = getelementptr inbounds nuw %struct.private_b64encode, ptr %131, i32 0, i32 3
  %133 = load i64, ptr %132, align 8, !tbaa !38
  %134 = load ptr, ptr %8, align 8, !tbaa !15
  %135 = getelementptr inbounds nuw %struct.private_b64encode, ptr %134, i32 0, i32 2
  %136 = getelementptr inbounds nuw %struct.archive_string, ptr %135, i32 0, i32 1
  %137 = load i64, ptr %136, align 8, !tbaa !47
  %138 = sub i64 %137, %133
  store i64 %138, ptr %136, align 8, !tbaa !47
  br label %90, !llvm.loop !50

139:                                              ; preds = %90
  %140 = load i32, ptr %10, align 4, !tbaa !13
  store i32 %140, ptr %4, align 4
  store i32 1, ptr %11, align 4
  br label %141

141:                                              ; preds = %139, %54, %18
  call void @llvm.lifetime.end.p0(i64 4, ptr %10) #7
  call void @llvm.lifetime.end.p0(i64 8, ptr %9) #7
  call void @llvm.lifetime.end.p0(i64 8, ptr %8) #7
  %142 = load i32, ptr %4, align 4
  ret i32 %142
}