; Function Attrs: nounwind uwtable
define internal i32 @archive_filter_b64encode_write(ptr noundef readonly captures(none) %0, ptr noundef readonly captures(none) %1, i64 noundef %2) #0 {
  %4 = getelementptr inbounds nuw i8, ptr %0, i64 72
  %5 = load ptr, ptr %4, align 8, !tbaa !17
  %6 = icmp eq i64 %2, 0
  br i1 %6, label %.loopexit, label %7

7:                                                ; preds = %3
  %8 = getelementptr inbounds nuw i8, ptr %5, i64 64
  %9 = load i64, ptr %8, align 8, !tbaa !35
  %.not = icmp eq i64 %9, 0
  br i1 %.not, label %24, label %.preheader

.preheader:                                       ; preds = %7
  %10 = icmp ult i64 %9, 57
  br i1 %10, label %.lr.ph, label %._crit_edge.thread

.lr.ph:                                           ; preds = %.preheader
  %11 = getelementptr inbounds nuw i8, ptr %5, i64 72
  br label %12

12:                                               ; preds = %.lr.ph, %12
  %.151 = phi ptr [ %1, %.lr.ph ], [ %14, %12 ]
  %.14350 = phi i64 [ %2, %.lr.ph ], [ %18, %12 ]
  %13 = phi i64 [ %9, %.lr.ph ], [ %16, %12 ]
  %14 = getelementptr inbounds nuw i8, ptr %.151, i64 1
  %15 = load i8, ptr %.151, align 1, !tbaa !31
  %16 = add nuw nsw i64 %13, 1
  store i64 %16, ptr %8, align 8, !tbaa !35
  %17 = getelementptr inbounds nuw [57 x i8], ptr %11, i64 0, i64 %13
  store i8 %15, ptr %17, align 1, !tbaa !31
  %18 = add i64 %.14350, -1
  %19 = icmp samesign ult i64 %13, 56
  %20 = icmp ne i64 %18, 0
  %21 = select i1 %19, i1 %20, i1 false
  br i1 %21, label %12, label %._crit_edge, !llvm.loop !36

._crit_edge:                                      ; preds = %12
  br i1 %19, label %.loopexit, label %._crit_edge.thread

._crit_edge.thread:                               ; preds = %.preheader, %._crit_edge
  %.1.lcssa75 = phi ptr [ %14, %._crit_edge ], [ %1, %.preheader ]
  %.143.lcssa74 = phi i64 [ %18, %._crit_edge ], [ %2, %.preheader ]
  %22 = getelementptr inbounds nuw i8, ptr %5, i64 32
  %23 = getelementptr inbounds nuw i8, ptr %5, i64 72
  tail call fastcc void @la_b64_encode(ptr noundef nonnull %22, ptr noundef nonnull %23, i64 noundef 57)
  store i64 0, ptr %8, align 8, !tbaa !35
  br label %24

24:                                               ; preds = %._crit_edge.thread, %7
  %.042 = phi i64 [ %.143.lcssa74, %._crit_edge.thread ], [ %2, %7 ]
  %.040 = phi ptr [ %.1.lcssa75, %._crit_edge.thread ], [ %1, %7 ]
  %25 = icmp ugt i64 %.042, 56
  br i1 %25, label %.lr.ph57, label %._crit_edge58

.lr.ph57:                                         ; preds = %24
  %26 = getelementptr inbounds nuw i8, ptr %5, i64 32
  br label %27

27:                                               ; preds = %.lr.ph57, %27
  %.255 = phi ptr [ %.040, %.lr.ph57 ], [ %29, %27 ]
  %.24454 = phi i64 [ %.042, %.lr.ph57 ], [ %28, %27 ]
  tail call fastcc void @la_b64_encode(ptr noundef nonnull %26, ptr noundef %.255, i64 noundef 57)
  %28 = add i64 %.24454, -57
  %29 = getelementptr inbounds nuw i8, ptr %.255, i64 57
  %30 = icmp ugt i64 %28, 56
  br i1 %30, label %27, label %._crit_edge58, !llvm.loop !37

._crit_edge58:                                    ; preds = %27, %24
  %.244.lcssa = phi i64 [ %.042, %24 ], [ %28, %27 ]
  %.2.lcssa = phi ptr [ %.040, %24 ], [ %29, %27 ]
  %.not48 = icmp eq i64 %.244.lcssa, 0
  br i1 %.not48, label %33, label %31

31:                                               ; preds = %._crit_edge58
  %32 = getelementptr inbounds nuw i8, ptr %5, i64 72
  tail call void @llvm.memcpy.p0.p0.i64(ptr nonnull align 8 %32, ptr align 1 %.2.lcssa, i64 %.244.lcssa, i1 false)
  store i64 %.244.lcssa, ptr %8, align 8, !tbaa !35
  br label %33

33:                                               ; preds = %31, %._crit_edge58
  %34 = getelementptr inbounds nuw i8, ptr %5, i64 40
  %35 = getelementptr inbounds nuw i8, ptr %5, i64 56
  %36 = load i64, ptr %34, align 8, !tbaa !38
  %37 = load i64, ptr %35, align 8, !tbaa !29
  %.not4961 = icmp ult i64 %36, %37
  br i1 %.not4961, label %.loopexit, label %.lr.ph63

.lr.ph63:                                         ; preds = %33
  %38 = getelementptr inbounds nuw i8, ptr %5, i64 32
  %39 = getelementptr inbounds nuw i8, ptr %0, i64 16
  br label %40

40:                                               ; preds = %.lr.ph63, %40
  %41 = phi i64 [ %37, %.lr.ph63 ], [ %50, %40 ]
  %42 = load ptr, ptr %39, align 8, !tbaa !39
  %43 = load ptr, ptr %38, align 8, !tbaa !40
  %44 = tail call i32 @__archive_write_filter(ptr noundef %42, ptr noundef %43, i64 noundef %41) #6
  %45 = load ptr, ptr %38, align 8, !tbaa !40
  %46 = load i64, ptr %35, align 8, !tbaa !29
  %47 = getelementptr inbounds nuw i8, ptr %45, i64 %46
  %48 = load i64, ptr %34, align 8, !tbaa !38
  %49 = sub i64 %48, %46
  tail call void @llvm.memmove.p0.p0.i64(ptr align 1 %45, ptr align 1 %47, i64 %49, i1 false)
  %50 = load i64, ptr %35, align 8, !tbaa !29
  %51 = load i64, ptr %34, align 8, !tbaa !38
  %52 = sub i64 %51, %50
  store i64 %52, ptr %34, align 8, !tbaa !38
  %.not49 = icmp ult i64 %52, %50
  br i1 %.not49, label %.loopexit, label %40, !llvm.loop !41

.loopexit:                                        ; preds = %40, %33, %._crit_edge, %3
  %.041 = phi i32 [ 0, %3 ], [ 0, %._crit_edge ], [ 0, %33 ], [ %44, %40 ]
  ret i32 %.041
}